(lp0
S'poi'
p1
aS'bonus'
p2
aS'deferral_payments'
p3
aS'deferred_income'
p4
aS'director_fees'
p5
aS'exercised_stock_options'
p6
aS'expenses'
p7
aS'from_messages'
p8
aS'loan_advances'
p9
aS'long_term_incentive'
p10
aS'other'
p11
aS'restricted_stock'
p12
aS'restricted_stock_deferred'
p13
aS'salary'
p14
aS'shared_receipt_with_poi'
p15
aS'to_messages'
p16
aS'total_payments'
p17
aS'total_stock_value'
p18
aS'fraction_from_poi_email'
p19
aS'fraction_to_poi_email'
p20
a.